target datalayout = "e-m:e-p270:32:32-p271:32:32-p272:64:64-i64:64-i128:128-f80:128-n8:16:32:64-S128"
target triple = "x86_64-pc-linux-gnu"

%class.GCMutexLocker = type <{ ptr, i8, [7 x i8] }>

@SystemDictionary_lock = external global ptr, align 8

; Function Attrs: mustprogress nounwind uwtable
define linkonce_odr hidden void @_ZN13GCMutexLockerD2Ev(ptr noundef nonnull align 8 dereferenceable(9) %0) unnamed_addr #1 comdat align 2 {
  %2 = alloca ptr, align 8
  store ptr %0, ptr %2, align 8
  %3 = load ptr, ptr %2, align 8
  %4 = getelementptr inbounds %class.GCMutexLocker, ptr %3, i32 0, i32 1
  %5 = load i8, ptr %4, align 8
  %6 = trunc i8 %5 to i1
  br i1 %6, label %7, label %10

7:                                                ; preds = %1
  %8 = getelementptr inbounds %class.GCMutexLocker, ptr %3, i32 0, i32 0
  %9 = load ptr, ptr %8, align 8
  call void @_ZN5Mutex6unlockEv(ptr noundef nonnull align 8 dereferenceable(104) %9)
  br label %10

10:                                               ; preds = %7, %1
  ret void
}

; Function Attrs: mustprogress nounwind uwtable
define hidden void @_ZN16SystemDictionary8print_onEP12outputStream(ptr noundef %0) #1 align 2 {
  %2 = alloca ptr, align 8
  %3 = alloca %class.GCMutexLocker, align 8
  store ptr %0, ptr %2, align 8
  %4 = load ptr, ptr %2, align 8
  call void @_ZN22SystemDictionaryShared8print_onEP12outputStream(ptr noundef %4)
  %5 = load ptr, ptr @SystemDictionary_lock, align 8
  call void @_ZN13GCMutexLockerC1EP5Mutex(ptr noundef nonnull align 8 dereferenceable(9) %3, ptr noundef %5)
  %6 = load ptr, ptr %2, align 8
  call void @_ZN20ClassLoaderDataGraph16print_dictionaryEP12outputStream(ptr noundef %6)
  %7 = load ptr, ptr %2, align 8
  call void @_ZN16PlaceholderTable8print_onEP12outputStream(ptr noundef %7)
  %8 = load ptr, ptr %2, align 8
  call void @_ZN12outputStream2crEv(ptr noundef nonnull align 8 dereferenceable(56) %8)
  %9 = load ptr, ptr %2, align 8
  call void @_ZN21LoaderConstraintTable8print_onEP12outputStream(ptr noundef %9)
  %10 = load ptr, ptr %2, align 8
  call void @_ZN12outputStream2crEv(ptr noundef nonnull align 8 dereferenceable(56) %10)
  %11 = load ptr, ptr %2, align 8
  call void @_ZN26ProtectionDomainCacheTable8print_onEP12outputStream(ptr noundef %11)
  %12 = load ptr, ptr %2, align 8
  call void @_ZN12outputStream2crEv(ptr noundef nonnull align 8 dereferenceable(56) %12)
  call void @_ZN13GCMutexLockerD2Ev(ptr noundef nonnull align 8 dereferenceable(9) %3) #9
  ret void
}