; Function Attrs: mustprogress nounwind uwtable
define hidden void @_ZN16SystemDictionary8print_onEP12outputStream(ptr noundef %0) local_unnamed_addr #0 align 2 {
  %2 = alloca %class.GCMutexLocker, align 8
  tail call void @_ZN22SystemDictionaryShared8print_onEP12outputStream(ptr noundef %0) #14
  %3 = load ptr, ptr @SystemDictionary_lock, align 8
  call void @_ZN13GCMutexLockerC1EP5Mutex(ptr noundef nonnull align 8 dereferenceable(9) %2, ptr noundef %3) #14
  call void @_ZN20ClassLoaderDataGraph16print_dictionaryEP12outputStream(ptr noundef %0) #14
  call void @_ZN16PlaceholderTable8print_onEP12outputStream(ptr noundef %0) #14
  call void @_ZN12outputStream2crEv(ptr noundef nonnull align 8 dereferenceable(56) %0) #14
  call void @_ZN21LoaderConstraintTable8print_onEP12outputStream(ptr noundef nonnull %0) #14
  call void @_ZN12outputStream2crEv(ptr noundef nonnull align 8 dereferenceable(56) %0) #14
  call void @_ZN26ProtectionDomainCacheTable8print_onEP12outputStream(ptr noundef nonnull %0) #14
  call void @_ZN12outputStream2crEv(ptr noundef nonnull align 8 dereferenceable(56) %0) #14
  %4 = getelementptr inbounds i8, ptr %2, i64 8
  %5 = load i8, ptr %4, align 8
  %6 = trunc i8 %5 to i1
  br i1 %6, label %7, label %_ZN13GCMutexLockerD2Ev.exit

7:                                                ; preds = %1
  %8 = load ptr, ptr %2, align 8
  call void @_ZN5Mutex6unlockEv(ptr noundef nonnull align 8 dereferenceable(104) %8) #14
  br label %_ZN13GCMutexLockerD2Ev.exit

_ZN13GCMutexLockerD2Ev.exit:                      ; preds = %1, %7
  ret void
}